; Function Attrs: mustprogress uwtable
define dso_local noundef zeroext i1 @_ZN3igl6opengl4glfw5imgui11ImGuiPlugin11key_pressedEji(ptr noundef nonnull readonly align 8 captures(none) dereferenceable(88) %0, i32 noundef %1, i32 noundef %2) unnamed_addr #0 align 2 {
  tail call void @_Z27ImGui_ImplGlfw_CharCallbackP10GLFWwindowj(ptr noundef null, i32 noundef %1)
  %4 = tail call noundef nonnull align 8 dereferenceable(5464) ptr @_ZN5ImGui5GetIOEv()
  %5 = getelementptr inbounds nuw i8, ptr %4, i64 909
  %6 = load i8, ptr %5, align 1, !tbaa !87, !range !85, !noundef !86
  %7 = trunc nuw i8 %6 to i1
  br i1 %7, label %.loopexit, label %8

8:                                                ; preds = %3
  %9 = getelementptr inbounds nuw i8, ptr %0, i64 64
  %10 = load ptr, ptr %9, align 8, !tbaa !73
  %11 = getelementptr inbounds nuw i8, ptr %0, i64 72
  %12 = load ptr, ptr %11, align 8, !tbaa !73
  %.not14.not = icmp eq ptr %10, %12
  br i1 %.not14.not, label %.loopexit, label %.lr.ph

.lr.ph:                                           ; preds = %8, %.lr.ph
  %.sroa.011.015 = phi ptr [ %18, %.lr.ph ], [ %10, %8 ]
  %13 = load ptr, ptr %.sroa.011.015, align 8, !tbaa !74
  %14 = load ptr, ptr %13, align 8, !tbaa !71
  %15 = getelementptr inbounds nuw i8, ptr %14, i64 64
  %16 = load ptr, ptr %15, align 8
  %17 = tail call noundef zeroext i1 %16(ptr noundef nonnull align 8 dereferenceable(56) %13, i32 noundef %1, i32 noundef %2)
  %18 = getelementptr inbounds nuw i8, ptr %.sroa.011.015, i64 8
  %.not.not = icmp eq ptr %18, %12
  %or.cond = select i1 %17, i1 true, i1 %.not.not
  br i1 %or.cond, label %.loopexit, label %.lr.ph

.loopexit:                                        ; preds = %.lr.ph, %8, %3
  %.0 = phi i1 [ true, %3 ], [ false, %8 ], [ %17, %.lr.ph ]
  ret i1 %.0
}